target datalayout = "e-m:e-p270:32:32-p271:32:32-p272:64:64-i64:64-i128:128-f80:128-n8:16:32:64-S128"
target triple = "x86_64-pc-linux-gnu"

%"class.ceres::IterationCallback" = type { ptr }
%"class.ceres::internal::GradientProblemSolverStateUpdatingCallback" = type { %"class.ceres::IterationCallback", i32, ptr, ptr }

@_ZTVN5ceres17IterationCallbackE = available_externally unnamed_addr constant { [5 x ptr] } { [5 x ptr] [ptr null, ptr @_ZTIN5ceres17IterationCallbackE, ptr @_ZN5ceres17IterationCallbackD1Ev, ptr @_ZN5ceres17IterationCallbackD0Ev, ptr @__cxa_pure_virtual] }, align 8

; Function Attrs: inlinehint mustprogress nounwind uwtable
define linkonce_odr hidden void @_ZN5ceres17IterationCallbackC2Ev(ptr noundef nonnull align 8 dereferenceable(8) %0) unnamed_addr #5 comdat align 2 {
  %2 = alloca ptr, align 8
  store ptr %0, ptr %2, align 8, !tbaa !18
  %3 = load ptr, ptr %2, align 8
  store ptr getelementptr inbounds inrange(-16, 24) ({ [5 x ptr] }, ptr @_ZTVN5ceres17IterationCallbackE, i32 0, i32 0, i32 2), ptr %3, align 8, !tbaa !12
  ret void
}

; Function Attrs: mustprogress nounwind uwtable
define hidden void @_ZN5ceres8internal42GradientProblemSolverStateUpdatingCallbackC2EiPKdPd(ptr noundef nonnull align 8 dereferenceable(32) %0, i32 noundef %1, ptr noundef %2, ptr noundef %3) unnamed_addr #4 align 2 {
  %5 = alloca ptr, align 8
  %6 = alloca i32, align 4
  %7 = alloca ptr, align 8
  %8 = alloca ptr, align 8
  store ptr %0, ptr %5, align 8, !tbaa !22
  store i32 %1, ptr %6, align 4, !tbaa !24
  store ptr %2, ptr %7, align 8, !tbaa !10
  store ptr %3, ptr %8, align 8, !tbaa !10
  %9 = load ptr, ptr %5, align 8
  call void @_ZN5ceres17IterationCallbackC2Ev(ptr noundef nonnull align 8 dereferenceable(8) %9) #3
  store ptr getelementptr inbounds inrange(-16, 24) ({ [5 x ptr] }, ptr @_ZTVN5ceres8internal42GradientProblemSolverStateUpdatingCallbackE, i32 0, i32 0, i32 2), ptr %9, align 8, !tbaa !12
  %10 = getelementptr inbounds nuw %"class.ceres::internal::GradientProblemSolverStateUpdatingCallback", ptr %9, i32 0, i32 1
  %11 = load i32, ptr %6, align 4, !tbaa !24
  store i32 %11, ptr %10, align 8, !tbaa !26
  %12 = getelementptr inbounds nuw %"class.ceres::internal::GradientProblemSolverStateUpdatingCallback", ptr %9, i32 0, i32 2
  %13 = load ptr, ptr %7, align 8, !tbaa !10
  store ptr %13, ptr %12, align 8, !tbaa !28
  %14 = getelementptr inbounds nuw %"class.ceres::internal::GradientProblemSolverStateUpdatingCallback", ptr %9, i32 0, i32 3
  %15 = load ptr, ptr %8, align 8, !tbaa !10
  store ptr %15, ptr %14, align 8, !tbaa !29
  ret void
}